_ZN4tapi10APIVersion*
_ZN4tapi7Version*
_ZN4tapi2v119LinkerInterfaceFile11isSupportedERKNSt3__112basic_stringIcNS2_11char_traitsIcEENS2_9allocatorIcEEEEPKhm
_ZN4tapi2v119LinkerInterfaceFile13areEquivalentERKNSt3__112basic_stringIcNS2_11char_traitsIcEENS2_9allocatorIcEEEESA_
_ZN4tapi2v119LinkerInterfaceFile26getSupportedFileExtensionsEv
_ZN4tapi2v119LinkerInterfaceFile29shouldPreferTextBasedStubFileERKNSt3__112basic_stringIcNS2_11char_traitsIcEENS2_9allocatorIcEEEE
_ZN4tapi2v119LinkerInterfaceFile6createERKNSt3__112basic_stringIcNS2_11char_traitsIcEENS2_9allocatorIcEEEEPKhmiiNS0_12ParsingFlagsENS0_15PackedVersion32ERS8_
_ZN4tapi2v119LinkerInterfaceFile6createERKNSt3__112basic_stringIcNS2_11char_traitsIcEENS2_9allocatorIcEEEEPKhmiiNS0_18CpuSubTypeMatchingENS0_15PackedVersion32ERS8_
_ZN4tapi2v119LinkerInterfaceFile6createERKNSt3__112basic_stringIcNS2_11char_traitsIcEENS2_9allocatorIcEEEEiiNS0_12ParsingFlagsENS0_15PackedVersion32ERS8_
_ZN4tapi2v119LinkerInterfaceFileC1EOS1_
_ZN4tapi2v119LinkerInterfaceFileC1Ev
_ZN4tapi2v119LinkerInterfaceFileC2EOS1_
_ZN4tapi2v119LinkerInterfaceFileC2Ev
_ZN4tapi2v119LinkerInterfaceFileD1Ev
_ZN4tapi2v119LinkerInterfaceFileD2Ev
_ZN4tapi2v119LinkerInterfaceFileaSEOS1_
_ZNK4tapi2v119LinkerInterfaceFile10undefinedsEv
_ZNK4tapi2v119LinkerInterfaceFile11getFileTypeEv
_ZNK4tapi2v119LinkerInterfaceFile11getPlatformEv
_ZNK4tapi2v119LinkerInterfaceFile13ignoreExportsEv
_ZNK4tapi2v119LinkerInterfaceFile14getInstallNameEv
_ZNK4tapi2v119LinkerInterfaceFile14getPlatformSetEv
_ZNK4tapi2v119LinkerInterfaceFile15getSwiftVersionEv
_ZNK4tapi2v119LinkerInterfaceFile16allowableClientsEv
_ZNK4tapi2v119LinkerInterfaceFile17getCurrentVersionEv
_ZNK4tapi2v119LinkerInterfaceFile17getObjCConstraintEv
_ZNK4tapi2v119LinkerInterfaceFile19getInlinedFrameworkERKNSt3__112basic_stringIcNS2_11char_traitsIcEENS2_9allocatorIcEEEEiiNS0_12ParsingFlagsENS0_15PackedVersion32ERS8_
_ZNK4tapi2v119LinkerInterfaceFile19hasAllowableClientsEv
_ZNK4tapi2v119LinkerInterfaceFile19reexportedLibrariesEv
_ZNK4tapi2v119LinkerInterfaceFile20hasTwoLevelNamespaceEv
_ZNK4tapi2v119LinkerInterfaceFile21hasWeakDefinedExportsEv
_ZNK4tapi2v119LinkerInterfaceFile21inlinedFrameworkNamesEv
_ZNK4tapi2v119LinkerInterfaceFile22getParentFrameworkNameEv
_ZNK4tapi2v119LinkerInterfaceFile22hasReexportedLibrariesEv
_ZNK4tapi2v119LinkerInterfaceFile23getCompatibilityVersionEv
_ZNK4tapi2v119LinkerInterfaceFile26isApplicationExtensionSafeEv
_ZNK4tapi2v119LinkerInterfaceFile28isInstallNameVersionSpecificEv
_ZNK4tapi2v119LinkerInterfaceFile7exportsEv
